; Function Attrs: mustprogress uwtable
define void @_ZN3gmx19VirtualSitesHandler12spreadForcesENS_8ArrayRefIKNS_11BasicVectorIfEEEENS1_IS3_EENS0_14VirialHandlingES6_PA3_fP6t_nrnbPA3_KfP13gmx_wallcycle(ptr noundef nonnull readonly align 8 captures(none) dereferenceable(8) %0, ptr %1, ptr %2, ptr %3, ptr %4, i32 noundef %5, ptr noundef readonly byval(%"class.gmx::ArrayRef.35") align 8 captures(none) %6, ptr noundef captures(none) %7, ptr noundef captures(none) %8, ptr noundef %9, ptr noundef %10) local_unnamed_addr #8 align 2 {
  %12 = alloca %"class.gmx::ArrayRef.35", align 8
  %13 = load ptr, ptr %0, align 8, !tbaa !4
  %14 = ptrtoint ptr %2 to i64
  %15 = ptrtoint ptr %1 to i64
  %16 = sub i64 %14, %15
  %17 = getelementptr inbounds nuw i8, ptr %1, i64 %16
  %18 = ptrtoint ptr %4 to i64
  %19 = ptrtoint ptr %3 to i64
  %20 = sub i64 %18, %19
  %21 = getelementptr inbounds nuw i8, ptr %3, i64 %20
  %22 = load ptr, ptr %6, align 8, !tbaa !69
  store ptr %22, ptr %12, align 8, !tbaa !69
  %23 = getelementptr inbounds nuw i8, ptr %12, i64 8
  %24 = getelementptr inbounds nuw i8, ptr %6, i64 8
  %25 = load ptr, ptr %24, align 8, !tbaa !69
  %26 = ptrtoint ptr %25 to i64
  %27 = ptrtoint ptr %22 to i64
  %28 = sub i64 %26, %27
  %29 = getelementptr inbounds nuw i8, ptr %22, i64 %28
  store ptr %29, ptr %23, align 8, !tbaa !69
  tail call void @_ZN3gmx19VirtualSitesHandler4Impl12spreadForcesENS_8ArrayRefIKNS_11BasicVectorIfEEEENS2_IS4_EENS0_14VirialHandlingES7_PA3_fP6t_nrnbPA3_KfP13gmx_wallcycle(ptr noundef nonnull align 8 dereferenceable(112) %13, ptr %1, ptr %17, ptr %3, ptr %21, i32 noundef %5, ptr noundef nonnull byval(%"class.gmx::ArrayRef.35") align 8 %12, ptr noundef %7, ptr noundef %8, ptr noundef %9, ptr noundef %10)
  ret void
}